---
triple:          'x86_64-apple-darwin'
binary-path:     '/Users/MingyuanWang/Documents/Research/Northwestern Kovacs Lab/Coding/first_order_SDRG'
relocations:
  - { offset: 0x3F, size: 0x8, addend: 0x0, symName: _adjacency_list, symObjAddr: 0xD75E0, symBinAddr: 0x100018520, symSize: 0x0 }
  - { offset: 0xCCAE, size: 0x8, addend: 0x0, symName: __ZNSt3__124__put_character_sequenceB8ne180100IcNS_11char_traitsIcEEEERNS_13basic_ostreamIT_T0_EES7_PKS4_m, symObjAddr: 0x10FC0, symBinAddr: 0x100011F20, symSize: 0x530 }
  - { offset: 0xF7C8, size: 0x8, addend: 0x0, symName: __ZNSt3__120__throw_length_errorB8ne180100EPKc, symObjAddr: 0xB4D0, symBinAddr: 0x10000C430, symSize: 0x50 }
  - { offset: 0xFE8F, size: 0x8, addend: 0x0, symName: __ZNSt3__135__uninitialized_allocator_copy_implB8ne180100INS_9allocatorI4NodeEEPS2_S4_S4_EET2_RT_T0_T1_S5_, symObjAddr: 0xD090, symBinAddr: 0x10000DFF0, symSize: 0x2B0 }
  - { offset: 0x10D60, size: 0x8, addend: 0x0, symName: __ZNSt3__116__pad_and_outputB8ne180100IcNS_11char_traitsIcEEEENS_19ostreambuf_iteratorIT_T0_EES6_PKS4_S8_S8_RNS_8ios_baseES4_, symObjAddr: 0x114F0, symBinAddr: 0x100012450, symSize: 0x480 }
  - { offset: 0x12564, size: 0x8, addend: 0x0, symName: __ZSt28__throw_bad_array_new_lengthB8ne180100v, symObjAddr: 0xB570, symBinAddr: 0x10000C4D0, symSize: 0x40 }
  - { offset: 0x131AF, size: 0x8, addend: 0x0, symName: _parameters, symObjAddr: 0x113600, symBinAddr: 0x100054540, symSize: 0x0 }
  - { offset: 0x13459, size: 0x8, addend: 0x0, symName: _.str, symObjAddr: 0x12840, symBinAddr: 0x100013B60, symSize: 0x0 }
  - { offset: 0x13478, size: 0x8, addend: 0x0, symName: _.str.2, symObjAddr: 0x12860, symBinAddr: 0x100013B80, symSize: 0x0 }
  - { offset: 0x13497, size: 0x8, addend: 0x0, symName: _.str.3, symObjAddr: 0x128C0, symBinAddr: 0x100013BE0, symSize: 0x0 }
  - { offset: 0x134C3, size: 0x8, addend: 0x0, symName: _.str.5, symObjAddr: 0x128E0, symBinAddr: 0x100013C00, symSize: 0x0 }
  - { offset: 0x1351A, size: 0x8, addend: 0x0, symName: _.str.6, symObjAddr: 0x12900, symBinAddr: 0x100013C20, symSize: 0x0 }
  - { offset: 0x13539, size: 0x8, addend: 0x0, symName: _.str.7, symObjAddr: 0x12960, symBinAddr: 0x100013C80, symSize: 0x0 }
  - { offset: 0x13558, size: 0x8, addend: 0x0, symName: _.str.9, symObjAddr: 0x12980, symBinAddr: 0x100013CA0, symSize: 0x0 }
  - { offset: 0x13748, size: 0x8, addend: 0x0, symName: __ZNSt3__16vectorIP9ParameterNS_9allocatorIS2_EEE26__swap_out_circular_bufferERNS_14__split_bufferIS2_RS4_EE, symObjAddr: 0xB910, symBinAddr: 0x10000C870, symSize: 0x910 }
  - { offset: 0x13AFE, size: 0x8, addend: 0x0, symName: __ZNSt3__16vectorI4NodeNS_9allocatorIS1_EEE26__swap_out_circular_bufferERNS_14__split_bufferIS1_RS3_EE, symObjAddr: 0xD340, symBinAddr: 0x10000E2A0, symSize: 0x4E0 }
  - { offset: 0x1411C, size: 0x8, addend: 0x0, symName: __ZNSt3__16vectorI4NodeNS_9allocatorIS1_EEE26__swap_out_circular_bufferERNS_14__split_bufferIS1_RS3_EEPS1_, symObjAddr: 0x10890, symBinAddr: 0x1000117F0, symSize: 0x710 }
  - { offset: 0x14C21, size: 0x8, addend: 0x0, symName: ___cxx_global_array_dtor, symObjAddr: 0x119E0, symBinAddr: 0x100012940, symSize: 0xE0 }
  - { offset: 0x15082, size: 0x8, addend: 0x0, symName: '__ZNSt3__114priority_queueIP9ParameterNS_6vectorIS2_NS_9allocatorIS2_EEEE3$_0ED1Ev', symObjAddr: 0x0, symBinAddr: 0x100000F60, symSize: 0xC0 }
  - { offset: 0x16FB4, size: 0x8, addend: 0x0, symName: __Z13simulate_SDRGd, symObjAddr: 0xC0, symBinAddr: 0x100001020, symSize: 0xA8F0 }
  - { offset: 0x1DCDB, size: 0x8, addend: 0x0, symName: __ZNSt3__112__hash_tableIP4Edge8EdgeHashNS_8equal_toIS2_EENS_9allocatorIS2_EEE25__emplace_unique_key_argsIS2_JRKS2_EEENS_4pairINS_15__hash_iteratorIPNS_11__hash_nodeIS2_PvEEEEbEERKT_DpOT0_, symObjAddr: 0xD900, symBinAddr: 0x10000E860, symSize: 0x8E0 }
  - { offset: 0x1E410, size: 0x8, addend: 0x0, symName: __ZNSt3__16vectorI4NodeNS_9allocatorIS1_EEE22__construct_one_at_endB8ne180100IJRKS1_EEEvDpOT_, symObjAddr: 0xC240, symBinAddr: 0x10000D1A0, symSize: 0x360 }
  - { offset: 0x1E91C, size: 0x8, addend: 0x0, symName: __ZNSt3__16vectorI4NodeNS_9allocatorIS1_EEE21__push_back_slow_pathIRKS1_EEPS1_OT_, symObjAddr: 0xC5A0, symBinAddr: 0x10000D500, symSize: 0x3F0 }
  - { offset: 0x1F01A, size: 0x8, addend: 0x0, symName: '__ZNSt3__114priority_queueIP9ParameterNS_6vectorIS2_NS_9allocatorIS2_EEEE3$_0E3popEv', symObjAddr: 0xAB50, symBinAddr: 0x10000BAB0, symSize: 0x470 }
  - { offset: 0x1F392, size: 0x8, addend: 0x0, symName: __ZNSt3__16vectorI4NodeNS_9allocatorIS1_EEE18__assign_with_sizeB8ne180100IPS1_S6_EEvT_T0_l, symObjAddr: 0xEB20, symBinAddr: 0x10000FA80, symSize: 0x660 }
  - { offset: 0x1FB16, size: 0x8, addend: 0x0, symName: __ZNSt3__16vectorI4NodeNS_9allocatorIS1_EEE18__insert_with_sizeB8ne180100INS_11__wrap_iterIPS1_EES8_EES8_NS6_IPKS1_EET_T0_l, symObjAddr: 0xFA90, symBinAddr: 0x1000109F0, symSize: 0x680 }
  - { offset: 0x205C3, size: 0x8, addend: 0x0, symName: __ZNSt3__112__hash_tableIP4Edge8EdgeHashNS_8equal_toIS2_EENS_9allocatorIS2_EEE4findIS2_EENS_15__hash_iteratorIPNS_11__hash_nodeIS2_PvEEEERKT_, symObjAddr: 0xF390, symBinAddr: 0x1000102F0, symSize: 0x300 }
  - { offset: 0x20752, size: 0x8, addend: 0x0, symName: __ZNSt3__112__hash_tableIP4Edge8EdgeHashNS_8equal_toIS2_EENS_9allocatorIS2_EEE6removeENS_21__hash_const_iteratorIPNS_11__hash_nodeIS2_PvEEEE, symObjAddr: 0xF690, symBinAddr: 0x1000105F0, symSize: 0x400 }
  - { offset: 0x209E9, size: 0x8, addend: 0x0, symName: __ZNSt3__16vectorIP9ParameterNS_9allocatorIS2_EEE21__push_back_slow_pathIS2_EEPS2_OT_, symObjAddr: 0xB6E0, symBinAddr: 0x10000C640, symSize: 0x230 }
  - { offset: 0x20EA4, size: 0x8, addend: 0x0, symName: __ZN4NodeD1Ev, symObjAddr: 0xA9B0, symBinAddr: 0x10000B910, symSize: 0x1A0 }
  - { offset: 0x21236, size: 0x8, addend: 0x0, symName: __ZNKSt3__16vectorIP9ParameterNS_9allocatorIS2_EEE20__throw_length_errorB8ne180100Ev, symObjAddr: 0xC220, symBinAddr: 0x10000D180, symSize: 0x20 }
  - { offset: 0x2126B, size: 0x8, addend: 0x0, symName: __ZNKSt3__16vectorIP4EdgeNS_9allocatorIS2_EEE20__throw_length_errorB8ne180100Ev, symObjAddr: 0x10FA0, symBinAddr: 0x100011F00, symSize: 0x20 }
  - { offset: 0x212A0, size: 0x8, addend: 0x0, symName: __ZNKSt3__16vectorIP4NodeNS_9allocatorIS2_EEE20__throw_length_errorB8ne180100Ev, symObjAddr: 0xF370, symBinAddr: 0x1000102D0, symSize: 0x20 }
  - { offset: 0x212D5, size: 0x8, addend: 0x0, symName: __ZNSt3__16vectorIP4NodeNS_9allocatorIS2_EEED1B8ne180100Ev, symObjAddr: 0xAFC0, symBinAddr: 0x10000BF20, symSize: 0xC0 }
  - { offset: 0x21491, size: 0x8, addend: 0x0, symName: __ZNSt3__16vectorIP4EdgeNS_9allocatorIS2_EEED1B8ne180100Ev, symObjAddr: 0xB080, symBinAddr: 0x10000BFE0, symSize: 0xC0 }
  - { offset: 0x219BC, size: 0x8, addend: 0x0, symName: _main, symObjAddr: 0xB140, symBinAddr: 0x10000C0A0, symSize: 0x360 }
  - { offset: 0x21D6B, size: 0x8, addend: 0x0, symName: __ZNKSt3__112basic_stringIcNS_11char_traitsIcEENS_9allocatorIcEEE20__throw_length_errorB8ne180100Ev, symObjAddr: 0xB4B0, symBinAddr: 0x10000C410, symSize: 0x20 }
  - { offset: 0x21DA0, size: 0x8, addend: 0x0, symName: __ZNSt12length_errorC1B8ne180100EPKc, symObjAddr: 0xB520, symBinAddr: 0x10000C480, symSize: 0x50 }
  - { offset: 0x21FD4, size: 0x8, addend: 0x0, symName: __ZNSt3__112basic_stringIcNS_11char_traitsIcEENS_9allocatorIcEEE25__init_copy_ctor_externalEPKcm, symObjAddr: 0xB5B0, symBinAddr: 0x10000C510, symSize: 0x130 }
  - { offset: 0x226E9, size: 0x8, addend: 0x0, symName: __ZNSt3__16vectorI4NodeNS_9allocatorIS1_EEE16__init_with_sizeB8ne180100IPS1_S6_EEvT_T0_m, symObjAddr: 0xCA90, symBinAddr: 0x10000D9F0, symSize: 0x270 }
  - { offset: 0x22B97, size: 0x8, addend: 0x0, symName: __ZNSt3__16vectorI4NodeNS_9allocatorIS1_EEE21_ConstructTransactionD1B8ne180100Ev, symObjAddr: 0xC990, symBinAddr: 0x10000D8F0, symSize: 0x100 }
  - { offset: 0x22EC2, size: 0x8, addend: 0x0, symName: __ZNKSt3__16vectorI4NodeNS_9allocatorIS1_EEE20__throw_length_errorB8ne180100Ev, symObjAddr: 0xD070, symBinAddr: 0x10000DFD0, symSize: 0x20 }
  - { offset: 0x22EF7, size: 0x8, addend: 0x0, symName: __ZNSt3__114__split_bufferI4NodeRNS_9allocatorIS1_EEED1Ev, symObjAddr: 0xD820, symBinAddr: 0x10000E780, symSize: 0xE0 }
  - { offset: 0x23152, size: 0x8, addend: 0x0, symName: __ZNSt3__128__exception_guard_exceptionsINS_6vectorI4NodeNS_9allocatorIS2_EEE16__destroy_vectorEED1B8ne180100Ev, symObjAddr: 0xCE80, symBinAddr: 0x10000DDE0, symSize: 0x1F0 }
  - { offset: 0x23394, size: 0x8, addend: 0x0, symName: __ZNSt3__16vectorI4NodeNS_9allocatorIS1_EEE18__construct_at_endIPS1_S6_EEvT_T0_m, symObjAddr: 0xCD00, symBinAddr: 0x10000DC60, symSize: 0x180 }
  - { offset: 0x23A9B, size: 0x8, addend: 0x0, symName: __ZNSt3__112__hash_tableIP4Edge8EdgeHashNS_8equal_toIS2_EENS_9allocatorIS2_EEE11__do_rehashILb1EEEvm, symObjAddr: 0xE1E0, symBinAddr: 0x10000F140, symSize: 0x940 }
  - { offset: 0x240F8, size: 0x8, addend: 0x0, symName: __ZNSt3__16vectorI4NodeNS_9allocatorIS1_EEE13__vdeallocateEv, symObjAddr: 0xF180, symBinAddr: 0x1000100E0, symSize: 0x1F0 }
  - { offset: 0x246A1, size: 0x8, addend: 0x0, symName: __ZNSt3__16vectorI4NodeNS_9allocatorIS1_EEE18__construct_at_endINS_11__wrap_iterIPS1_EES8_EEvT_T0_m, symObjAddr: 0x10110, symBinAddr: 0x100011070, symSize: 0x180 }
  - { offset: 0x24925, size: 0x8, addend: 0x0, symName: __ZNSt3__16vectorI4NodeNS_9allocatorIS1_EEE12__move_rangeEPS1_S5_S5_, symObjAddr: 0x10290, symBinAddr: 0x1000111F0, symSize: 0x600 }
  - { offset: 0x256C3, size: 0x8, addend: 0x0, symName: __GLOBAL__sub_I_first_order_SDRG.c__, symObjAddr: 0x11AC0, symBinAddr: 0x100012A20, symSize: 0x77C }
...
